; Function Attrs: mustprogress uwtable
define internal void @_ZN11opencv_test12_GLOBAL__N_150gtest_EdgepreservingFilterTest_perf_EvalGenerator_Ev(ptr dead_on_unwind noalias writable sret(%"class.testing::internal::ParamGenerator") align 8 %0) #4 {
  %2 = alloca %"class.testing::internal::CartesianProductHolder2", align 4
  call void @llvm.lifetime.start.p0(i64 24, ptr nonnull %2) #27
  store i32 -20, ptr %2, align 4, !tbaa !34, !alias.scope !36
  %3 = getelementptr inbounds nuw i8, ptr %2, i64 4
  store i32 0, ptr %3, align 4, !tbaa !39, !alias.scope !36
  %4 = getelementptr inbounds nuw i8, ptr %2, i64 8
  store i32 10, ptr %4, align 4, !tbaa !40, !alias.scope !36
  %5 = getelementptr inbounds nuw i8, ptr %2, i64 12
  store i32 -100, ptr %5, align 4, !tbaa !34, !alias.scope !36
  %6 = getelementptr inbounds nuw i8, ptr %2, i64 16
  store i32 0, ptr %6, align 4, !tbaa !39, !alias.scope !36
  %7 = getelementptr inbounds nuw i8, ptr %2, i64 20
  store i32 20, ptr %7, align 4, !tbaa !40, !alias.scope !36
  call void @_ZNK7testing8internal23CartesianProductHolder2INS0_11ValueArray3IiiiEES3_EcvNS0_14ParamGeneratorISt5tupleIJT_T0_EEEEIidEEv(ptr dead_on_unwind writable sret(%"class.testing::internal::ParamGenerator") align 8 %0, ptr noundef nonnull align 4 dereferenceable(24) %2)
  call void @llvm.lifetime.end.p0(i64 24, ptr nonnull %2) #27
  ret void
}